target datalayout = "e-m:e-p270:32:32-p271:32:32-p272:64:64-i64:64-i128:128-f80:128-n8:16:32:64-S128"
target triple = "x86_64-pc-linux-gnu"

@PyExc_OSError = external global ptr, align 8

; Function Attrs: nounwind uwtable
define hidden i32 @_Py_set_blocking(i32 noundef %0, i32 noundef %1) #0 {
  %3 = alloca i32, align 4
  %4 = alloca i32, align 4
  %5 = alloca i32, align 4
  %6 = alloca i32, align 4
  %7 = alloca i32, align 4
  store i32 %0, ptr %4, align 4, !tbaa !4
  store i32 %1, ptr %5, align 4, !tbaa !4
  call void @llvm.lifetime.start.p0(i64 4, ptr %6) #10
  %8 = load i32, ptr %5, align 4, !tbaa !4
  %9 = icmp ne i32 %8, 0
  %10 = xor i1 %9, true
  %11 = zext i1 %10 to i32
  store i32 %11, ptr %6, align 4, !tbaa !4
  %12 = load i32, ptr %4, align 4, !tbaa !4
  %13 = call i32 (i32, i64, ...) @ioctl(i32 noundef %12, i64 noundef 21537, ptr noundef %6) #10
  %14 = icmp slt i32 %13, 0
  br i1 %14, label %15, label %16

15:                                               ; preds = %2
  br label %17

16:                                               ; preds = %2
  store i32 0, ptr %3, align 4
  store i32 1, ptr %7, align 4
  br label %20

17:                                               ; preds = %15
  %18 = load ptr, ptr @PyExc_OSError, align 8, !tbaa !178
  %19 = call ptr @PyErr_SetFromErrno(ptr noundef %18)
  store i32 -1, ptr %3, align 4
  store i32 1, ptr %7, align 4
  br label %20

20:                                               ; preds = %17, %16
  call void @llvm.lifetime.end.p0(i64 4, ptr %6) #10
  %21 = load i32, ptr %3, align 4
  ret i32 %21
}