; Function Attrs: nounwind uwtable
define hidden range(i32 -1, 1) i32 @_Py_set_blocking(i32 noundef %0, i32 noundef %1) local_unnamed_addr #0 {
  %3 = alloca i32, align 4
  call void @llvm.lifetime.start.p0(i64 4, ptr nonnull %3) #17
  %.not = icmp eq i32 %1, 0
  %4 = zext i1 %.not to i32
  store i32 %4, ptr %3, align 4, !tbaa !180
  %5 = call i32 (i32, i64, ...) @ioctl(i32 noundef %0, i64 noundef 21537, ptr noundef nonnull %3) #17
  %6 = icmp slt i32 %5, 0
  br i1 %6, label %7, label %10

7:                                                ; preds = %2
  %8 = load ptr, ptr @PyExc_OSError, align 8, !tbaa !188
  %9 = call ptr @PyErr_SetFromErrno(ptr noundef %8) #17
  br label %10

10:                                               ; preds = %2, %7
  %.0 = phi i32 [ -1, %7 ], [ 0, %2 ]
  call void @llvm.lifetime.end.p0(i64 4, ptr nonnull %3) #17
  ret i32 %.0
}